; Function Attrs: nounwind uwtable
define internal fastcc ptr @_init_l_Lean_PPContext_runCoreM___rarg___closed__6() unnamed_addr #0 {
  %1 = load ptr, ptr @l_Lean_firstFrontendMacroScope, align 8, !tbaa !9
  %2 = ptrtoint ptr %1 to i64
  %3 = and i64 %2, 1
  %.not = icmp eq i64 %3, 0
  br i1 %.not, label %.critedge.i, label %4, !prof !17

4:                                                ; preds = %0
  %5 = lshr i64 %2, 1
  %6 = add nuw i64 %5, 1
  %7 = icmp sgt i64 %6, -1
  br i1 %7, label %8, label %12, !prof !11

8:                                                ; preds = %4
  %9 = shl nuw i64 %6, 1
  %10 = or disjoint i64 %9, 1
  %11 = inttoptr i64 %10 to ptr
  br label %lean_nat_add.exit

12:                                               ; preds = %4
  %13 = tail call ptr @lean_big_usize_to_nat(i64 noundef range(i64 0, -1) %6) #6
  br label %lean_nat_add.exit

.critedge.i:                                      ; preds = %0
  %14 = tail call ptr @lean_nat_big_add(ptr noundef %1, ptr noundef nonnull inttoptr (i64 3 to ptr)) #6
  br label %lean_nat_add.exit

lean_nat_add.exit:                                ; preds = %12, %8, %.critedge.i
  %.0.i = phi ptr [ %14, %.critedge.i ], [ %11, %8 ], [ %13, %12 ]
  ret ptr %.0.i
}